#include <math.h>
#include <stdio.h>
#include <stdlib.h>
#include <string.h>
#include <iostream>
using namespace std;

/**
 * @file 1.cpp
 * @author ??? 1300012960
 * @date 2013-12-03
 * @description
 * ??????: ????? */
int n, k, m;     // n k?????? m??????
int f(int num)
{
	if (m % (n - 1) == 0)  // m?n - 1??????????
	{
		m = m * n / (n - 1) + k; // ??????????????
	}
	else return 0; // ????????
	if (num == 1) return 1; // ???????????????
	else return f(num - 1); // ??????
}
int main()
{
	cin >> n >> k;
	int p; // p?????????????
	p = m = n + k;
	while (1)
	{
		if (f(n - 1)) break;  // ????????????????
		else m = p += n; // ???????+n
	}
	cout << m << endl;  // ?????????
	return 0;
}